; Function Attrs: nounwind uwtable
define internal range(i32 0, 2) i32 @test_validate_msg_signature_sender_cert_trusted() #0 {
  %1 = tail call fastcc ptr @set_up(ptr noundef nonnull @.str.53)
  %2 = icmp eq ptr %1, null
  br i1 %2, label %42, label %3

3:                                                ; preds = %0
  %4 = load ptr, ptr @insta_cert, align 8, !tbaa !4
  %5 = getelementptr inbounds nuw i8, ptr %1, i64 32
  store ptr %4, ptr %5, align 8, !tbaa !29
  %6 = getelementptr inbounds nuw i8, ptr %1, i64 8
  store i32 1, ptr %6, align 8, !tbaa !24
  %7 = load ptr, ptr @ir_protected_0_extracerts, align 8, !tbaa !23
  %8 = load ptr, ptr @libctx, align 8, !tbaa !13
  %9 = tail call ptr @load_pkimsg(ptr noundef %7, ptr noundef %8) #7
  %10 = getelementptr inbounds nuw i8, ptr %1, i64 24
  store ptr %9, ptr %10, align 8, !tbaa !27
  %11 = tail call i32 @test_ptr(ptr noundef nonnull @.str.14, i32 noundef 321, ptr noundef nonnull @.str.82, ptr noundef %9) #7
  %.not = icmp eq i32 %11, 0
  br i1 %.not, label %.thread, label %12

12:                                               ; preds = %3
  %13 = getelementptr inbounds nuw i8, ptr %1, i64 16
  %14 = load ptr, ptr %13, align 8, !tbaa !28
  %15 = load ptr, ptr @instaca_cert, align 8, !tbaa !4
  %16 = tail call ptr @OSSL_CMP_CTX_get0_trustedStore(ptr noundef %14) #7
  %17 = tail call i32 @X509_STORE_add_cert(ptr noundef %16, ptr noundef %15) #7
  %.not14 = icmp eq i32 %17, 0
  br i1 %.not14, label %.thread, label %18

18:                                               ; preds = %12
  %19 = load ptr, ptr %13, align 8, !tbaa !28
  %20 = load ptr, ptr @insta_cert, align 8, !tbaa !4
  %21 = tail call ptr @OSSL_CMP_CTX_get0_trustedStore(ptr noundef %19) #7
  %22 = tail call i32 @X509_STORE_add_cert(ptr noundef %21, ptr noundef %20) #7
  %.not15 = icmp eq i32 %22, 0
  br i1 %.not15, label %.thread, label %25

.thread:                                          ; preds = %3, %12, %18
  %23 = load ptr, ptr %10, align 8, !tbaa !27
  tail call void @OSSL_CMP_MSG_free(ptr noundef %23) #7
  %24 = getelementptr inbounds nuw i8, ptr %1, i64 16
  br label %.sink.split

25:                                               ; preds = %18
  %26 = load i32, ptr %6, align 8, !tbaa !24
  %27 = load ptr, ptr %13, align 8, !tbaa !28
  %28 = load ptr, ptr %10, align 8, !tbaa !27
  %29 = tail call i32 @ossl_cmp_msg_check_update(ptr noundef %27, ptr noundef %28, ptr noundef null, i32 noundef 0) #7
  %30 = tail call i32 @test_int_eq(ptr noundef nonnull @.str.14, i32 noundef 139, ptr noundef nonnull @.str.75, ptr noundef nonnull @.str.78, i32 noundef %26, i32 noundef %29) #7
  %31 = load ptr, ptr %13, align 8, !tbaa !28
  %32 = tail call ptr @OSSL_CMP_CTX_get0_validatedSrvCert(ptr noundef %31) #7
  %.not.i = icmp eq i32 %30, 0
  br i1 %.not.i, label %execute_validate_msg_test.exit, label %33

33:                                               ; preds = %25
  %34 = load i32, ptr %6, align 8, !tbaa !24
  %.not7.i = icmp eq i32 %34, 0
  br i1 %.not7.i, label %execute_validate_msg_test.exit, label %35

35:                                               ; preds = %33
  %36 = load ptr, ptr %5, align 8, !tbaa !29
  %37 = tail call i32 @test_ptr_eq(ptr noundef nonnull @.str.14, i32 noundef 142, ptr noundef nonnull @.str.79, ptr noundef nonnull @.str.80, ptr noundef %32, ptr noundef %36) #7
  %38 = icmp ne i32 %37, 0
  %39 = zext i1 %38 to i32
  br label %execute_validate_msg_test.exit

execute_validate_msg_test.exit:                   ; preds = %25, %33, %35
  %40 = phi i32 [ 0, %25 ], [ 1, %33 ], [ %39, %35 ]
  %41 = load ptr, ptr %10, align 8, !tbaa !27
  tail call void @OSSL_CMP_MSG_free(ptr noundef %41) #7
  br label %.sink.split

.sink.split:                                      ; preds = %execute_validate_msg_test.exit, %.thread
  %.sink.in = phi ptr [ %24, %.thread ], [ %13, %execute_validate_msg_test.exit ]
  %.012.ph = phi i32 [ 0, %.thread ], [ %40, %execute_validate_msg_test.exit ]
  %.sink = load ptr, ptr %.sink.in, align 8, !tbaa !28
  tail call void @OSSL_CMP_CTX_free(ptr noundef %.sink) #7
  tail call void @CRYPTO_free(ptr noundef nonnull %1, ptr noundef nonnull @.str.14, i32 noundef 47) #7
  br label %42

42:                                               ; preds = %.sink.split, %0
  %.012 = phi i32 [ 0, %0 ], [ %.012.ph, %.sink.split ]
  ret i32 %.012
}